(dp0
Vengine
p1
Vpdflatex
p2
sVpackages
p3
c__builtin__
set
p4
((lp5
Va4wide
p6
aVbabel
p7
aVamsmath
p8
aVamsthm
p9
aVepstopdf
p10
aVgraphicx
p11
aVamsfonts
p12
aVinputenc
p13
aVamssymb
p14
atp15
Rp16
sVfiles_with_guttermarks
p17
g4
((lp18
S'report.tex'
p19
aV/Users/Vadim/Documents/LaTeX/5sem/lab3/report.tex
p20
atp21
Rp22
sVsynctex
p23
I01
s.