(dp0
Vengine
p1
Vpdflatex
p2
sVpackages
p3
c__builtin__
set
p4
((lp5
Va4wide
p6
aVbabel
p7
aVfootmisc
p8
aVamsmath
p9
aVamsthm
p10
aVepstopdf
p11
aVgraphicx
p12
aVamsfonts
p13
aVinputenc
p14
aVamssymb
p15
atp16
Rp17
sVfiles_with_guttermarks
p18
g4
((lp19
V/Users/Vadim/Documents/LaTeX/6sem/biomath/1.tex
p20
aS'kursach.tex'
p21
aV/Users/Vadim/Documents/LaTeX/6sem/biomath/./1.tex
p22
atp23
Rp24
sVsynctex
p25
I01
s.