(dp0
Vengine
p1
Vpdflatex
p2
sVpackages
p3
c__builtin__
set
p4
((lp5
Va4wide
p6
aVbabel
p7
aVfootmisc
p8
aVamsmath
p9
aVamsthm
p10
aVepstopdf
p11
aVgraphicx
p12
aVamsfonts
p13
aVinputenc
p14
aVamssymb
p15
atp16
Rp17
sVfiles_with_guttermarks
p18
g4
((lp19
V/Users/Vadim/Documents/LaTeX/6sem/biomath/./kursach.tex
p20
aV/Users/Vadim/Documents/LaTeX/6sem/biomath/1.tex
p21
aS'kursach.tex'
p22
aV/Users/Vadim/Documents/LaTeX/6sem/biomath/./1.tex
p23
atp24
Rp25
sVsynctex
p26
I01
s.