(dp0
Vengine
p1
Vpdflatex
p2
sVpackages
p3
c__builtin__
set
p4
((lp5
Va4wide
p6
aVbabel
p7
aVfloat
p8
aVfootmisc
p9
aVamsmath
p10
aVamsthm
p11
aVepstopdf
p12
aVgraphicx
p13
aVamsfonts
p14
aVinputenc
p15
aVsubcaption
p16
aVamssymb
p17
atp18
Rp19
sVfiles_with_guttermarks
p20
g4
((lp21
V/Users/Vadim/Documents/LaTeX/6sem/lab2/report.tex
p22
aS'report.tex'
p23
aV/Users/Vadim/Documents/LaTeX/6sem/lab2/./report.tex
p24
atp25
Rp26
sVsynctex
p27
I01
s.